target datalayout = "e-m:e-p270:32:32-p271:32:32-p272:64:64-i64:64-i128:128-f80:128-n8:16:32:64-S128"
target triple = "x86_64-pc-linux-gnu"

%struct.jv = type { i8, i8, i16, i32, %union.anon }
%union.anon = type { ptr }
%struct.jv_refcnt = type { i32 }
%struct.jvp_array = type { %struct.jv_refcnt, i32, i32, [0 x %struct.jv] }
%struct.jvp_string = type { %struct.jv_refcnt, i32, i32, i32, [0 x i8] }

; Function Attrs: nounwind uwtable
define internal ptr @jvp_array_alloc(i32 noundef %0) #0 {
  %2 = alloca i32, align 4
  %3 = alloca ptr, align 8
  store i32 %0, ptr %2, align 4, !tbaa !10
  call void @llvm.lifetime.start.p0(i64 8, ptr %3) #11
  %4 = load i32, ptr %2, align 4, !tbaa !10
  %5 = zext i32 %4 to i64
  %6 = mul i64 16, %5
  %7 = add i64 16, %6
  %8 = call ptr @jv_mem_alloc(i64 noundef %7)
  store ptr %8, ptr %3, align 8, !tbaa !14
  %9 = load ptr, ptr %3, align 8, !tbaa !14
  %10 = getelementptr inbounds nuw %struct.jvp_array, ptr %9, i32 0, i32 0
  %11 = getelementptr inbounds nuw %struct.jv_refcnt, ptr %10, i32 0, i32 0
  store i32 1, ptr %11, align 8, !tbaa !68
  %12 = load ptr, ptr %3, align 8, !tbaa !14
  %13 = getelementptr inbounds nuw %struct.jvp_array, ptr %12, i32 0, i32 1
  store i32 0, ptr %13, align 4, !tbaa !10
  %14 = load i32, ptr %2, align 4, !tbaa !10
  %15 = load ptr, ptr %3, align 8, !tbaa !14
  %16 = getelementptr inbounds nuw %struct.jvp_array, ptr %15, i32 0, i32 2
  store i32 %14, ptr %16, align 8, !tbaa !10
  %17 = load ptr, ptr %3, align 8, !tbaa !14
  call void @llvm.lifetime.end.p0(i64 8, ptr %3) #11
  ret ptr %17
}

; Function Attrs: nounwind uwtable
define internal i32 @jvp_array_length(i64 %0, ptr %1) #0 {
  %3 = alloca %struct.jv, align 8
  %4 = getelementptr inbounds nuw { i64, ptr }, ptr %3, i32 0, i32 0
  store i64 %0, ptr %4, align 8
  %5 = getelementptr inbounds nuw { i64, ptr }, ptr %3, i32 0, i32 1
  store ptr %1, ptr %5, align 8
  %6 = getelementptr inbounds nuw %struct.jv, ptr %3, i32 0, i32 3
  %7 = load i32, ptr %6, align 4, !tbaa !19
  ret i32 %7
}

; Function Attrs: nounwind uwtable
define internal { i64, ptr } @jvp_array_new(i32 noundef %0) #0 {
  %2 = alloca %struct.jv, align 8
  %3 = alloca i32, align 4
  store i32 %0, ptr %3, align 4, !tbaa !10
  %4 = getelementptr inbounds nuw %struct.jv, ptr %2, i32 0, i32 0
  store i8 -122, ptr %4, align 8, !tbaa !4
  %5 = getelementptr inbounds nuw %struct.jv, ptr %2, i32 0, i32 1
  store i8 0, ptr %5, align 1, !tbaa !17
  %6 = getelementptr inbounds nuw %struct.jv, ptr %2, i32 0, i32 2
  store i16 0, ptr %6, align 2, !tbaa !18
  %7 = getelementptr inbounds nuw %struct.jv, ptr %2, i32 0, i32 3
  store i32 0, ptr %7, align 4, !tbaa !19
  %8 = getelementptr inbounds nuw %struct.jv, ptr %2, i32 0, i32 4
  %9 = load i32, ptr %3, align 4, !tbaa !10
  %10 = call ptr @jvp_array_alloc(i32 noundef %9)
  %11 = getelementptr inbounds nuw %struct.jvp_array, ptr %10, i32 0, i32 0
  store ptr %11, ptr %8, align 8, !tbaa !12
  %12 = load { i64, ptr }, ptr %2, align 8
  ret { i64, ptr } %12
}

; Function Attrs: nounwind uwtable
define dso_local i32 @jv_array_length(i64 %0, ptr %1) #0 {
  %3 = alloca %struct.jv, align 8
  %4 = alloca i32, align 4
  %5 = getelementptr inbounds nuw { i64, ptr }, ptr %3, i32 0, i32 0
  store i64 %0, ptr %5, align 8
  %6 = getelementptr inbounds nuw { i64, ptr }, ptr %3, i32 0, i32 1
  store ptr %1, ptr %6, align 8
  call void @llvm.lifetime.start.p0(i64 4, ptr %4) #11
  %7 = getelementptr inbounds nuw { i64, ptr }, ptr %3, i32 0, i32 0
  %8 = load i64, ptr %7, align 8
  %9 = getelementptr inbounds nuw { i64, ptr }, ptr %3, i32 0, i32 1
  %10 = load ptr, ptr %9, align 8
  %11 = call i32 @jvp_array_length(i64 %8, ptr %10)
  store i32 %11, ptr %4, align 4, !tbaa !10
  %12 = getelementptr inbounds nuw { i64, ptr }, ptr %3, i32 0, i32 0
  %13 = load i64, ptr %12, align 8
  %14 = getelementptr inbounds nuw { i64, ptr }, ptr %3, i32 0, i32 1
  %15 = load ptr, ptr %14, align 8
  call void @jv_free(i64 %13, ptr %15)
  %16 = load i32, ptr %4, align 4, !tbaa !10
  call void @llvm.lifetime.end.p0(i64 4, ptr %4) #11
  ret i32 %16
}

; Function Attrs: nounwind uwtable
define dso_local { i64, ptr } @jv_array_sized(i32 noundef %0) #0 {
  %2 = alloca %struct.jv, align 8
  %3 = alloca i32, align 4
  store i32 %0, ptr %3, align 4, !tbaa !10
  %4 = load i32, ptr %3, align 4, !tbaa !10
  %5 = call { i64, ptr } @jvp_array_new(i32 noundef %4)
  %6 = getelementptr inbounds nuw { i64, ptr }, ptr %2, i32 0, i32 0
  %7 = extractvalue { i64, ptr } %5, 0
  store i64 %7, ptr %6, align 8
  %8 = getelementptr inbounds nuw { i64, ptr }, ptr %2, i32 0, i32 1
  %9 = extractvalue { i64, ptr } %5, 1
  store ptr %9, ptr %8, align 8
  %10 = load { i64, ptr }, ptr %2, align 8
  ret { i64, ptr } %10
}

; Function Attrs: nounwind uwtable
define internal i32 @jvp_string_length(ptr noundef %0) #0 {
  %2 = alloca ptr, align 8
  store ptr %0, ptr %2, align 8, !tbaa !14
  %3 = load ptr, ptr %2, align 8, !tbaa !14
  %4 = getelementptr inbounds nuw %struct.jvp_string, ptr %3, i32 0, i32 2
  %5 = load i32, ptr %4, align 4, !tbaa !10
  %6 = lshr i32 %5, 1
  ret i32 %6
}

; Function Attrs: nounwind uwtable
define internal void @jvp_refcnt_inc(ptr noundef %0) #0 {
  %2 = alloca ptr, align 8
  store ptr %0, ptr %2, align 8, !tbaa !83
  %3 = load ptr, ptr %2, align 8, !tbaa !83
  %4 = getelementptr inbounds nuw %struct.jv_refcnt, ptr %3, i32 0, i32 0
  %5 = load i32, ptr %4, align 4, !tbaa !68
  %6 = add nsw i32 %5, 1
  store i32 %6, ptr %4, align 4, !tbaa !68
  ret void
}

; Function Attrs: nounwind uwtable
define internal ptr @jvp_string_ptr(i64 %0, ptr %1) #0 {
  %3 = alloca %struct.jv, align 8
  %4 = getelementptr inbounds nuw { i64, ptr }, ptr %3, i32 0, i32 0
  store i64 %0, ptr %4, align 8
  %5 = getelementptr inbounds nuw { i64, ptr }, ptr %3, i32 0, i32 1
  store ptr %1, ptr %5, align 8
  %6 = getelementptr inbounds nuw %struct.jv, ptr %3, i32 0, i32 4
  %7 = load ptr, ptr %6, align 8, !tbaa !12
  ret ptr %7
}

; Function Attrs: nounwind uwtable
define dso_local { i64, ptr } @jv_array_append(i64 %0, ptr %1, i64 %2, ptr %3) #0 {
  %5 = alloca %struct.jv, align 8
  %6 = alloca %struct.jv, align 8
  %7 = alloca %struct.jv, align 8
  %8 = alloca %struct.jv, align 8
  %9 = getelementptr inbounds nuw { i64, ptr }, ptr %6, i32 0, i32 0
  store i64 %0, ptr %9, align 8
  %10 = getelementptr inbounds nuw { i64, ptr }, ptr %6, i32 0, i32 1
  store ptr %1, ptr %10, align 8
  %11 = getelementptr inbounds nuw { i64, ptr }, ptr %7, i32 0, i32 0
  store i64 %2, ptr %11, align 8
  %12 = getelementptr inbounds nuw { i64, ptr }, ptr %7, i32 0, i32 1
  store ptr %3, ptr %12, align 8
  %13 = getelementptr inbounds nuw { i64, ptr }, ptr %6, i32 0, i32 0
  %14 = load i64, ptr %13, align 8
  %15 = getelementptr inbounds nuw { i64, ptr }, ptr %6, i32 0, i32 1
  %16 = load ptr, ptr %15, align 8
  %17 = call { i64, ptr } @jv_copy(i64 %14, ptr %16)
  %18 = getelementptr inbounds nuw { i64, ptr }, ptr %8, i32 0, i32 0
  %19 = extractvalue { i64, ptr } %17, 0
  store i64 %19, ptr %18, align 8
  %20 = getelementptr inbounds nuw { i64, ptr }, ptr %8, i32 0, i32 1
  %21 = extractvalue { i64, ptr } %17, 1
  store ptr %21, ptr %20, align 8
  %22 = getelementptr inbounds nuw { i64, ptr }, ptr %8, i32 0, i32 0
  %23 = load i64, ptr %22, align 8
  %24 = getelementptr inbounds nuw { i64, ptr }, ptr %8, i32 0, i32 1
  %25 = load ptr, ptr %24, align 8
  %26 = call i32 @jv_array_length(i64 %23, ptr %25)
  %27 = getelementptr inbounds nuw { i64, ptr }, ptr %6, i32 0, i32 0
  %28 = load i64, ptr %27, align 8
  %29 = getelementptr inbounds nuw { i64, ptr }, ptr %6, i32 0, i32 1
  %30 = load ptr, ptr %29, align 8
  %31 = getelementptr inbounds nuw { i64, ptr }, ptr %7, i32 0, i32 0
  %32 = load i64, ptr %31, align 8
  %33 = getelementptr inbounds nuw { i64, ptr }, ptr %7, i32 0, i32 1
  %34 = load ptr, ptr %33, align 8
  %35 = call { i64, ptr } @jv_array_set(i64 %28, ptr %30, i32 noundef %26, i64 %32, ptr %34)
  %36 = getelementptr inbounds nuw { i64, ptr }, ptr %5, i32 0, i32 0
  %37 = extractvalue { i64, ptr } %35, 0
  store i64 %37, ptr %36, align 8
  %38 = getelementptr inbounds nuw { i64, ptr }, ptr %5, i32 0, i32 1
  %39 = extractvalue { i64, ptr } %35, 1
  store ptr %39, ptr %38, align 8
  %40 = load { i64, ptr }, ptr %5, align 8
  ret { i64, ptr } %40
}

; Function Attrs: nounwind uwtable
define dso_local { i64, ptr } @jv_number(double noundef %0) #0 {
  %2 = alloca %struct.jv, align 8
  %3 = alloca double, align 8
  store double %0, ptr %3, align 8, !tbaa !34
  %4 = getelementptr inbounds nuw %struct.jv, ptr %2, i32 0, i32 0
  store i8 4, ptr %4, align 8, !tbaa !4
  %5 = getelementptr inbounds nuw %struct.jv, ptr %2, i32 0, i32 1
  store i8 0, ptr %5, align 1, !tbaa !17
  %6 = getelementptr inbounds nuw %struct.jv, ptr %2, i32 0, i32 2
  store i16 0, ptr %6, align 2, !tbaa !18
  %7 = getelementptr inbounds nuw %struct.jv, ptr %2, i32 0, i32 3
  store i32 0, ptr %7, align 4, !tbaa !19
  %8 = getelementptr inbounds nuw %struct.jv, ptr %2, i32 0, i32 4
  %9 = load double, ptr %3, align 8, !tbaa !34
  store double %9, ptr %8, align 8, !tbaa !12
  %10 = load { i64, ptr }, ptr %2, align 8
  ret { i64, ptr } %10
}

; Function Attrs: nounwind uwtable
define dso_local { i64, ptr } @jv_array() #0 {
  %1 = alloca %struct.jv, align 8
  %2 = call { i64, ptr } @jv_array_sized(i32 noundef 16)
  %3 = getelementptr inbounds nuw { i64, ptr }, ptr %1, i32 0, i32 0
  %4 = extractvalue { i64, ptr } %2, 0
  store i64 %4, ptr %3, align 8
  %5 = getelementptr inbounds nuw { i64, ptr }, ptr %1, i32 0, i32 1
  %6 = extractvalue { i64, ptr } %2, 1
  store ptr %6, ptr %5, align 8
  %7 = load { i64, ptr }, ptr %1, align 8
  ret { i64, ptr } %7
}

; Function Attrs: nounwind uwtable
define dso_local i32 @jv_string_length_bytes(i64 %0, ptr %1) #0 {
  %3 = alloca %struct.jv, align 8
  %4 = alloca i32, align 4
  %5 = getelementptr inbounds nuw { i64, ptr }, ptr %3, i32 0, i32 0
  store i64 %0, ptr %5, align 8
  %6 = getelementptr inbounds nuw { i64, ptr }, ptr %3, i32 0, i32 1
  store ptr %1, ptr %6, align 8
  call void @llvm.lifetime.start.p0(i64 4, ptr %4) #11
  %7 = getelementptr inbounds nuw { i64, ptr }, ptr %3, i32 0, i32 0
  %8 = load i64, ptr %7, align 8
  %9 = getelementptr inbounds nuw { i64, ptr }, ptr %3, i32 0, i32 1
  %10 = load ptr, ptr %9, align 8
  %11 = call ptr @jvp_string_ptr(i64 %8, ptr %10)
  %12 = call i32 @jvp_string_length(ptr noundef %11)
  store i32 %12, ptr %4, align 4, !tbaa !10
  %13 = getelementptr inbounds nuw { i64, ptr }, ptr %3, i32 0, i32 0
  %14 = load i64, ptr %13, align 8
  %15 = getelementptr inbounds nuw { i64, ptr }, ptr %3, i32 0, i32 1
  %16 = load ptr, ptr %15, align 8
  call void @jv_free(i64 %14, ptr %16)
  %17 = load i32, ptr %4, align 4, !tbaa !10
  call void @llvm.lifetime.end.p0(i64 4, ptr %4) #11
  ret i32 %17
}

; Function Attrs: nounwind uwtable
define dso_local { i64, ptr } @jv_copy(i64 %0, ptr %1) #0 {
  %3 = alloca %struct.jv, align 8
  %4 = alloca %struct.jv, align 8
  %5 = getelementptr inbounds nuw { i64, ptr }, ptr %4, i32 0, i32 0
  store i64 %0, ptr %5, align 8
  %6 = getelementptr inbounds nuw { i64, ptr }, ptr %4, i32 0, i32 1
  store ptr %1, ptr %6, align 8
  %7 = getelementptr inbounds nuw %struct.jv, ptr %4, i32 0, i32 0
  %8 = load i8, ptr %7, align 8, !tbaa !4
  %9 = zext i8 %8 to i32
  %10 = and i32 %9, 128
  %11 = icmp ne i32 %10, 0
  br i1 %11, label %12, label %15

12:                                               ; preds = %2
  %13 = getelementptr inbounds nuw %struct.jv, ptr %4, i32 0, i32 4
  %14 = load ptr, ptr %13, align 8, !tbaa !12
  call void @jvp_refcnt_inc(ptr noundef %14)
  br label %15

15:                                               ; preds = %12, %2
  call void @llvm.memcpy.p0.p0.i64(ptr align 8 %3, ptr align 8 %4, i64 16, i1 false), !tbaa.struct !11
  %16 = load { i64, ptr }, ptr %3, align 8
  ret { i64, ptr } %16
}

; Function Attrs: nounwind uwtable
define dso_local ptr @jv_string_value(i64 %0, ptr %1) #0 {
  %3 = alloca %struct.jv, align 8
  %4 = getelementptr inbounds nuw { i64, ptr }, ptr %3, i32 0, i32 0
  store i64 %0, ptr %4, align 8
  %5 = getelementptr inbounds nuw { i64, ptr }, ptr %3, i32 0, i32 1
  store ptr %1, ptr %5, align 8
  %6 = getelementptr inbounds nuw { i64, ptr }, ptr %3, i32 0, i32 0
  %7 = load i64, ptr %6, align 8
  %8 = getelementptr inbounds nuw { i64, ptr }, ptr %3, i32 0, i32 1
  %9 = load ptr, ptr %8, align 8
  %10 = call ptr @jvp_string_ptr(i64 %7, ptr %9)
  %11 = getelementptr inbounds nuw %struct.jvp_string, ptr %10, i32 0, i32 4
  %12 = getelementptr inbounds [0 x i8], ptr %11, i64 0, i64 0
  ret ptr %12
}

; Function Attrs: nounwind uwtable
define dso_local { i64, ptr } @jv_string_indexes(i64 %0, ptr %1, i64 %2, ptr %3) #0 {
  %5 = alloca %struct.jv, align 8
  %6 = alloca %struct.jv, align 8
  %7 = alloca %struct.jv, align 8
  %8 = alloca ptr, align 8
  %9 = alloca ptr, align 8
  %10 = alloca ptr, align 8
  %11 = alloca ptr, align 8
  %12 = alloca i32, align 4
  %13 = alloca %struct.jv, align 8
  %14 = alloca i32, align 4
  %15 = alloca %struct.jv, align 8
  %16 = alloca i32, align 4
  %17 = alloca %struct.jv, align 8
  %18 = alloca %struct.jv, align 8
  %19 = getelementptr inbounds nuw { i64, ptr }, ptr %6, i32 0, i32 0
  store i64 %0, ptr %19, align 8
  %20 = getelementptr inbounds nuw { i64, ptr }, ptr %6, i32 0, i32 1
  store ptr %1, ptr %20, align 8
  %21 = getelementptr inbounds nuw { i64, ptr }, ptr %7, i32 0, i32 0
  store i64 %2, ptr %21, align 8
  %22 = getelementptr inbounds nuw { i64, ptr }, ptr %7, i32 0, i32 1
  store ptr %3, ptr %22, align 8
  call void @llvm.lifetime.start.p0(i64 8, ptr %8) #11
  %23 = getelementptr inbounds nuw { i64, ptr }, ptr %6, i32 0, i32 0
  %24 = load i64, ptr %23, align 8
  %25 = getelementptr inbounds nuw { i64, ptr }, ptr %6, i32 0, i32 1
  %26 = load ptr, ptr %25, align 8
  %27 = call ptr @jv_string_value(i64 %24, ptr %26)
  store ptr %27, ptr %8, align 8, !tbaa !30
  call void @llvm.lifetime.start.p0(i64 8, ptr %9) #11
  %28 = getelementptr inbounds nuw { i64, ptr }, ptr %7, i32 0, i32 0
  %29 = load i64, ptr %28, align 8
  %30 = getelementptr inbounds nuw { i64, ptr }, ptr %7, i32 0, i32 1
  %31 = load ptr, ptr %30, align 8
  %32 = call ptr @jv_string_value(i64 %29, ptr %31)
  store ptr %32, ptr %9, align 8, !tbaa !30
  call void @llvm.lifetime.start.p0(i64 8, ptr %10) #11
  call void @llvm.lifetime.start.p0(i64 8, ptr %11) #11
  call void @llvm.lifetime.start.p0(i64 4, ptr %12) #11
  %33 = getelementptr inbounds nuw { i64, ptr }, ptr %6, i32 0, i32 0
  %34 = load i64, ptr %33, align 8
  %35 = getelementptr inbounds nuw { i64, ptr }, ptr %6, i32 0, i32 1
  %36 = load ptr, ptr %35, align 8
  %37 = call { i64, ptr } @jv_copy(i64 %34, ptr %36)
  %38 = getelementptr inbounds nuw { i64, ptr }, ptr %13, i32 0, i32 0
  %39 = extractvalue { i64, ptr } %37, 0
  store i64 %39, ptr %38, align 8
  %40 = getelementptr inbounds nuw { i64, ptr }, ptr %13, i32 0, i32 1
  %41 = extractvalue { i64, ptr } %37, 1
  store ptr %41, ptr %40, align 8
  %42 = getelementptr inbounds nuw { i64, ptr }, ptr %13, i32 0, i32 0
  %43 = load i64, ptr %42, align 8
  %44 = getelementptr inbounds nuw { i64, ptr }, ptr %13, i32 0, i32 1
  %45 = load ptr, ptr %44, align 8
  %46 = call i32 @jv_string_length_bytes(i64 %43, ptr %45)
  store i32 %46, ptr %12, align 4, !tbaa !10
  call void @llvm.lifetime.start.p0(i64 4, ptr %14) #11
  %47 = getelementptr inbounds nuw { i64, ptr }, ptr %7, i32 0, i32 0
  %48 = load i64, ptr %47, align 8
  %49 = getelementptr inbounds nuw { i64, ptr }, ptr %7, i32 0, i32 1
  %50 = load ptr, ptr %49, align 8
  %51 = call { i64, ptr } @jv_copy(i64 %48, ptr %50)
  %52 = getelementptr inbounds nuw { i64, ptr }, ptr %15, i32 0, i32 0
  %53 = extractvalue { i64, ptr } %51, 0
  store i64 %53, ptr %52, align 8
  %54 = getelementptr inbounds nuw { i64, ptr }, ptr %15, i32 0, i32 1
  %55 = extractvalue { i64, ptr } %51, 1
  store ptr %55, ptr %54, align 8
  %56 = getelementptr inbounds nuw { i64, ptr }, ptr %15, i32 0, i32 0
  %57 = load i64, ptr %56, align 8
  %58 = getelementptr inbounds nuw { i64, ptr }, ptr %15, i32 0, i32 1
  %59 = load ptr, ptr %58, align 8
  %60 = call i32 @jv_string_length_bytes(i64 %57, ptr %59)
  store i32 %60, ptr %14, align 4, !tbaa !10
  %61 = call { i64, ptr } @jv_array()
  %62 = getelementptr inbounds nuw { i64, ptr }, ptr %5, i32 0, i32 0
  %63 = extractvalue { i64, ptr } %61, 0
  store i64 %63, ptr %62, align 8
  %64 = getelementptr inbounds nuw { i64, ptr }, ptr %5, i32 0, i32 1
  %65 = extractvalue { i64, ptr } %61, 1
  store ptr %65, ptr %64, align 8
  %66 = load i32, ptr %14, align 4, !tbaa !10
  %67 = icmp ne i32 %66, 0
  br i1 %67, label %68, label %123

68:                                               ; preds = %4
  call void @llvm.lifetime.start.p0(i64 4, ptr %16) #11
  store i32 0, ptr %16, align 4, !tbaa !10
  %69 = load ptr, ptr %8, align 8, !tbaa !30
  store ptr %69, ptr %11, align 8, !tbaa !30
  store ptr %69, ptr %10, align 8, !tbaa !30
  br label %70

70:                                               ; preds = %99, %68
  %71 = load ptr, ptr %10, align 8, !tbaa !30
  %72 = load ptr, ptr %8, align 8, !tbaa !30
  %73 = load i32, ptr %12, align 4, !tbaa !10
  %74 = sext i32 %73 to i64
  %75 = getelementptr inbounds i8, ptr %72, i64 %74
  %76 = load ptr, ptr %10, align 8, !tbaa !30
  %77 = ptrtoint ptr %75 to i64
  %78 = ptrtoint ptr %76 to i64
  %79 = sub i64 %77, %78
  %80 = load ptr, ptr %9, align 8, !tbaa !30
  %81 = load i32, ptr %14, align 4, !tbaa !10
  %82 = sext i32 %81 to i64
  %83 = call ptr @_jq_memmem(ptr noundef %71, i64 noundef %79, ptr noundef %80, i64 noundef %82)
  store ptr %83, ptr %10, align 8, !tbaa !30
  %84 = icmp ne ptr %83, null
  br i1 %84, label %85, label %122

85:                                               ; preds = %70
  br label %86

86:                                               ; preds = %90, %85
  %87 = load ptr, ptr %11, align 8, !tbaa !30
  %88 = load ptr, ptr %10, align 8, !tbaa !30
  %89 = icmp ult ptr %87, %88
  br i1 %89, label %90, label %99

90:                                               ; preds = %86
  %91 = load ptr, ptr %11, align 8, !tbaa !30
  %92 = load i8, ptr %91, align 1, !tbaa !12
  %93 = call i32 @jvp_utf8_decode_length(i8 noundef signext %92)
  %94 = load ptr, ptr %11, align 8, !tbaa !30
  %95 = sext i32 %93 to i64
  %96 = getelementptr inbounds i8, ptr %94, i64 %95
  store ptr %96, ptr %11, align 8, !tbaa !30
  %97 = load i32, ptr %16, align 4, !tbaa !10
  %98 = add nsw i32 %97, 1
  store i32 %98, ptr %16, align 4, !tbaa !10
  br label %86, !llvm.loop !57

99:                                               ; preds = %86
  call void @llvm.lifetime.start.p0(i64 16, ptr %17) #11
  %100 = load i32, ptr %16, align 4, !tbaa !10
  %101 = sitofp i32 %100 to double
  %102 = call { i64, ptr } @jv_number(double noundef %101)
  %103 = getelementptr inbounds nuw { i64, ptr }, ptr %18, i32 0, i32 0
  %104 = extractvalue { i64, ptr } %102, 0
  store i64 %104, ptr %103, align 8
  %105 = getelementptr inbounds nuw { i64, ptr }, ptr %18, i32 0, i32 1
  %106 = extractvalue { i64, ptr } %102, 1
  store ptr %106, ptr %105, align 8
  %107 = getelementptr inbounds nuw { i64, ptr }, ptr %5, i32 0, i32 0
  %108 = load i64, ptr %107, align 8
  %109 = getelementptr inbounds nuw { i64, ptr }, ptr %5, i32 0, i32 1
  %110 = load ptr, ptr %109, align 8
  %111 = getelementptr inbounds nuw { i64, ptr }, ptr %18, i32 0, i32 0
  %112 = load i64, ptr %111, align 8
  %113 = getelementptr inbounds nuw { i64, ptr }, ptr %18, i32 0, i32 1
  %114 = load ptr, ptr %113, align 8
  %115 = call { i64, ptr } @jv_array_append(i64 %108, ptr %110, i64 %112, ptr %114)
  %116 = getelementptr inbounds nuw { i64, ptr }, ptr %17, i32 0, i32 0
  %117 = extractvalue { i64, ptr } %115, 0
  store i64 %117, ptr %116, align 8
  %118 = getelementptr inbounds nuw { i64, ptr }, ptr %17, i32 0, i32 1
  %119 = extractvalue { i64, ptr } %115, 1
  store ptr %119, ptr %118, align 8
  call void @llvm.memcpy.p0.p0.i64(ptr align 8 %5, ptr align 8 %17, i64 16, i1 false), !tbaa.struct !11
  call void @llvm.lifetime.end.p0(i64 16, ptr %17) #11
  %120 = load ptr, ptr %10, align 8, !tbaa !30
  %121 = getelementptr inbounds nuw i8, ptr %120, i32 1
  store ptr %121, ptr %10, align 8, !tbaa !30
  br label %70, !llvm.loop !58

122:                                              ; preds = %70
  call void @llvm.lifetime.end.p0(i64 4, ptr %16) #11
  br label %123

123:                                              ; preds = %122, %4
  %124 = getelementptr inbounds nuw { i64, ptr }, ptr %6, i32 0, i32 0
  %125 = load i64, ptr %124, align 8
  %126 = getelementptr inbounds nuw { i64, ptr }, ptr %6, i32 0, i32 1
  %127 = load ptr, ptr %126, align 8
  call void @jv_free(i64 %125, ptr %127)
  %128 = getelementptr inbounds nuw { i64, ptr }, ptr %7, i32 0, i32 0
  %129 = load i64, ptr %128, align 8
  %130 = getelementptr inbounds nuw { i64, ptr }, ptr %7, i32 0, i32 1
  %131 = load ptr, ptr %130, align 8
  call void @jv_free(i64 %129, ptr %131)
  call void @llvm.lifetime.end.p0(i64 4, ptr %14) #11
  call void @llvm.lifetime.end.p0(i64 4, ptr %12) #11
  call void @llvm.lifetime.end.p0(i64 8, ptr %11) #11
  call void @llvm.lifetime.end.p0(i64 8, ptr %10) #11
  call void @llvm.lifetime.end.p0(i64 8, ptr %9) #11
  call void @llvm.lifetime.end.p0(i64 8, ptr %8) #11
  %132 = load { i64, ptr }, ptr %5, align 8
  ret { i64, ptr } %132
}