; Function Attrs: nounwind uwtable
define dso_local { i64, ptr } @jv_string_indexes(i64 %0, ptr %1, i64 %2, ptr %3) local_unnamed_addr #2 {
  %5 = getelementptr inbounds nuw i8, ptr %1, i64 16
  %6 = getelementptr inbounds nuw i8, ptr %3, i64 16
  %7 = and i64 %0, 128
  %.not.i = icmp eq i64 %7, 0
  br i1 %.not.i, label %jv_copy.exit, label %8

8:                                                ; preds = %4
  %9 = load i32, ptr %1, align 4, !tbaa !9
  %10 = add nsw i32 %9, 1
  store i32 %10, ptr %1, align 4, !tbaa !9
  br label %jv_copy.exit

jv_copy.exit:                                     ; preds = %4, %8
  %11 = getelementptr i8, ptr %1, i64 8
  %.val.i = load i32, ptr %11, align 4, !tbaa !4
  %12 = lshr i32 %.val.i, 1
  tail call void @jv_free(i64 %0, ptr %1)
  %13 = and i64 %2, 128
  %.not.i40 = icmp eq i64 %13, 0
  br i1 %.not.i40, label %jv_copy.exit43, label %14

14:                                               ; preds = %jv_copy.exit
  %15 = load i32, ptr %3, align 4, !tbaa !9
  %16 = add nsw i32 %15, 1
  store i32 %16, ptr %3, align 4, !tbaa !9
  br label %jv_copy.exit43

jv_copy.exit43:                                   ; preds = %jv_copy.exit, %14
  %17 = getelementptr i8, ptr %3, i64 8
  %.val.i44 = load i32, ptr %17, align 4, !tbaa !4
  tail call void @jv_free(i64 %2, ptr %3)
  %18 = tail call ptr @jv_mem_alloc(i64 noundef 272) #25
  store i32 1, ptr %18, align 8, !tbaa !9
  %19 = getelementptr inbounds nuw i8, ptr %18, i64 4
  store i32 0, ptr %19, align 4, !tbaa !4
  %20 = getelementptr inbounds nuw i8, ptr %18, i64 8
  store i32 16, ptr %20, align 8, !tbaa !4
  %.not = icmp ult i32 %.val.i44, 2
  br i1 %.not, label %.loopexit, label %.preheader46

.preheader46:                                     ; preds = %jv_copy.exit43
  %21 = lshr i32 %.val.i44, 1
  %22 = zext nneg i32 %12 to i64
  %23 = getelementptr inbounds nuw i8, ptr %5, i64 %22
  %24 = ptrtoint ptr %23 to i64
  %25 = zext nneg i32 %21 to i64
  %26 = tail call ptr @_jq_memmem(ptr noundef nonnull %5, i64 noundef %22, ptr noundef nonnull %6, i64 noundef %25) #25
  %.not3950 = icmp eq ptr %26, null
  br i1 %.not3950, label %.loopexit, label %.preheader

.preheader:                                       ; preds = %.preheader46, %jv_array_append.exit
  %27 = phi ptr [ %48, %jv_array_append.exit ], [ %26, %.preheader46 ]
  %.sroa.433.154 = phi ptr [ %44, %jv_array_append.exit ], [ %18, %.preheader46 ]
  %.sroa.031.153 = phi i64 [ %43, %jv_array_append.exit ], [ 134, %.preheader46 ]
  %.03452 = phi ptr [ %.1.lcssa, %jv_array_append.exit ], [ %5, %.preheader46 ]
  %.03551 = phi i32 [ %.136.lcssa, %jv_array_append.exit ], [ 0, %.preheader46 ]
  %28 = icmp ult ptr %.03452, %27
  br i1 %28, label %.lr.ph, label %._crit_edge

.lr.ph:                                           ; preds = %.preheader, %.lr.ph
  %.148 = phi ptr [ %32, %.lr.ph ], [ %.03452, %.preheader ]
  %.13647 = phi i32 [ %33, %.lr.ph ], [ %.03551, %.preheader ]
  %29 = load i8, ptr %.148, align 1, !tbaa !8
  %30 = tail call i32 @jvp_utf8_decode_length(i8 noundef signext %29) #25
  %31 = sext i32 %30 to i64
  %32 = getelementptr inbounds i8, ptr %.148, i64 %31
  %33 = add nsw i32 %.13647, 1
  %34 = icmp ult ptr %32, %27
  br i1 %34, label %.lr.ph, label %._crit_edge, !llvm.loop !49

._crit_edge:                                      ; preds = %.lr.ph, %.preheader
  %.136.lcssa = phi i32 [ %.03551, %.preheader ], [ %33, %.lr.ph ]
  %.1.lcssa = phi ptr [ %.03452, %.preheader ], [ %32, %.lr.ph ]
  %35 = sitofp i32 %.136.lcssa to double
  %36 = bitcast double %35 to i64
  %37 = inttoptr i64 %36 to ptr
  %38 = and i64 %.sroa.031.153, 128
  %.not.i.i = icmp eq i64 %38, 0
  br i1 %.not.i.i, label %jv_array_append.exit, label %39

39:                                               ; preds = %._crit_edge
  %40 = load i32, ptr %.sroa.433.154, align 4, !tbaa !9
  %41 = add nsw i32 %40, 1
  store i32 %41, ptr %.sroa.433.154, align 4, !tbaa !9
  br label %jv_array_append.exit

jv_array_append.exit:                             ; preds = %._crit_edge, %39
  %.sroa.1.0.extract.shift.i.i.i = lshr i64 %.sroa.031.153, 32
  %.sroa.1.0.extract.trunc.i.i.i = trunc nuw i64 %.sroa.1.0.extract.shift.i.i.i to i32
  tail call void @jv_free(i64 %.sroa.031.153, ptr %.sroa.433.154)
  %42 = tail call { i64, ptr } @jv_array_set(i64 %.sroa.031.153, ptr %.sroa.433.154, i32 noundef %.sroa.1.0.extract.trunc.i.i.i, i64 4, ptr %37)
  %43 = extractvalue { i64, ptr } %42, 0
  %44 = extractvalue { i64, ptr } %42, 1
  %45 = getelementptr inbounds nuw i8, ptr %27, i64 1
  %46 = ptrtoint ptr %45 to i64
  %47 = sub i64 %24, %46
  %48 = tail call ptr @_jq_memmem(ptr noundef nonnull %45, i64 noundef %47, ptr noundef nonnull %6, i64 noundef %25) #25
  %.not39 = icmp eq ptr %48, null
  br i1 %.not39, label %.loopexit, label %.preheader, !llvm.loop !50

.loopexit:                                        ; preds = %jv_array_append.exit, %.preheader46, %jv_copy.exit43
  %.sroa.031.0 = phi i64 [ 134, %jv_copy.exit43 ], [ 134, %.preheader46 ], [ %43, %jv_array_append.exit ]
  %.sroa.433.0 = phi ptr [ %18, %jv_copy.exit43 ], [ %18, %.preheader46 ], [ %44, %jv_array_append.exit ]
  tail call void @jv_free(i64 %0, ptr %1)
  tail call void @jv_free(i64 %2, ptr nonnull %3)
  %.fca.0.insert = insertvalue { i64, ptr } poison, i64 %.sroa.031.0, 0
  %.fca.1.insert = insertvalue { i64, ptr } %.fca.0.insert, ptr %.sroa.433.0, 1
  ret { i64, ptr } %.fca.1.insert
}